; Function Attrs: nounwind uwtable
define internal fastcc noundef zeroext i1 @QueueCmdDrawPoints(ptr noundef %0, ptr noundef nonnull %1, i32 noundef %2) unnamed_addr #0 {
  %4 = tail call fastcc ptr @PrepQueueCmdDraw(ptr noundef %0, i32 noundef 5, ptr noundef null)
  %.not = icmp eq ptr %4, null
  br i1 %.not, label %10, label %5

5:                                                ; preds = %3
  %6 = getelementptr inbounds nuw i8, ptr %0, i64 48
  %7 = load ptr, ptr %6, align 8
  %8 = tail call zeroext i1 %7(ptr noundef %0, ptr noundef nonnull %4, ptr noundef nonnull %1, i32 noundef %2) #15
  br i1 %8, label %10, label %9

9:                                                ; preds = %5
  store i32 0, ptr %4, align 8
  br label %10

10:                                               ; preds = %5, %9, %3
  %.0.shrunk = phi i1 [ true, %5 ], [ false, %9 ], [ false, %3 ]
  ret i1 %.0.shrunk
}